target datalayout = "e-m:e-p270:32:32-p271:32:32-p272:64:64-i64:64-i128:128-f80:128-n8:16:32:64-S128"
target triple = "x86_64-pc-linux-gnu"

%struct.jpeg_decompress_struct = type { ptr, ptr, ptr, ptr, i32, i32, ptr, i32, i32, i32, i32, i32, i32, i32, double, i32, i32, i32, i32, i32, i32, i32, i32, i32, i32, i32, i32, i32, i32, i32, i32, i32, i32, ptr, i32, i32, i32, i32, i32, ptr, [4 x ptr], [4 x ptr], [4 x ptr], i32, ptr, i32, i32, [16 x i8], [16 x i8], [16 x i8], i32, i32, i8, i8, i8, i16, i16, i32, i8, i32, ptr, i32, i32, i32, i32, ptr, i32, [4 x ptr], i32, i32, i32, [10 x i32], i32, i32, i32, i32, i32, ptr, ptr, ptr, ptr, ptr, ptr, ptr, ptr, ptr, ptr, ptr }
%struct.jpeg_decomp_master = type { ptr, ptr, i32, i32, i32, i32, [10 x i32], [10 x i32], i32, i32, ptr }
%struct.jpeg_error_mgr = type { ptr, ptr, ptr, ptr, ptr, i32, %union.anon, i32, i64, ptr, i32, ptr, i32, i32 }
%union.anon = type { [8 x i32], [48 x i8] }
%struct.jpeg_memory_mgr = type { ptr, ptr, ptr, ptr, ptr, ptr, ptr, ptr, ptr, ptr, ptr, i64, i64 }
%struct.my_post_controller = type { %struct.jpeg_d_post_controller, ptr, ptr, i32, i32, i32 }
%struct.jpeg_d_post_controller = type { ptr, ptr, ptr, ptr }

; Function Attrs: nounwind uwtable
define void @jinit_d_post_controller(ptr noundef %0, i32 noundef %1) #0 {
  %3 = alloca ptr, align 8
  %4 = alloca i32, align 4
  %5 = alloca ptr, align 8
  store ptr %0, ptr %3, align 8, !tbaa !3
  store i32 %1, ptr %4, align 4, !tbaa !8
  call void @llvm.lifetime.start.p0(i64 8, ptr %5) #3
  %6 = load ptr, ptr %3, align 8, !tbaa !3
  %7 = getelementptr inbounds nuw %struct.jpeg_decompress_struct, ptr %6, i32 0, i32 77
  %8 = load ptr, ptr %7, align 8, !tbaa !10
  %9 = getelementptr inbounds nuw %struct.jpeg_decomp_master, ptr %8, i32 0, i32 3
  %10 = load i32, ptr %9, align 4, !tbaa !33
  %11 = icmp ne i32 %10, 0
  br i1 %11, label %12, label %42

12:                                               ; preds = %2
  %13 = load ptr, ptr %3, align 8, !tbaa !3
  %14 = getelementptr inbounds nuw %struct.jpeg_decompress_struct, ptr %13, i32 0, i32 43
  %15 = load i32, ptr %14, align 8, !tbaa !35
  %16 = icmp sgt i32 %15, 8
  br i1 %16, label %22, label %17

17:                                               ; preds = %12
  %18 = load ptr, ptr %3, align 8, !tbaa !3
  %19 = getelementptr inbounds nuw %struct.jpeg_decompress_struct, ptr %18, i32 0, i32 43
  %20 = load i32, ptr %19, align 8, !tbaa !35
  %21 = icmp slt i32 %20, 2
  br i1 %21, label %22, label %41

22:                                               ; preds = %17, %12
  %23 = load ptr, ptr %3, align 8, !tbaa !3
  %24 = getelementptr inbounds nuw %struct.jpeg_decompress_struct, ptr %23, i32 0, i32 0
  %25 = load ptr, ptr %24, align 8, !tbaa !36
  %26 = getelementptr inbounds nuw %struct.jpeg_error_mgr, ptr %25, i32 0, i32 5
  store i32 15, ptr %26, align 8, !tbaa !37
  %27 = load ptr, ptr %3, align 8, !tbaa !3
  %28 = getelementptr inbounds nuw %struct.jpeg_decompress_struct, ptr %27, i32 0, i32 43
  %29 = load i32, ptr %28, align 8, !tbaa !35
  %30 = load ptr, ptr %3, align 8, !tbaa !3
  %31 = getelementptr inbounds nuw %struct.jpeg_decompress_struct, ptr %30, i32 0, i32 0
  %32 = load ptr, ptr %31, align 8, !tbaa !36
  %33 = getelementptr inbounds nuw %struct.jpeg_error_mgr, ptr %32, i32 0, i32 6
  %34 = getelementptr inbounds [8 x i32], ptr %33, i64 0, i64 0
  store i32 %29, ptr %34, align 4, !tbaa !40
  %35 = load ptr, ptr %3, align 8, !tbaa !3
  %36 = getelementptr inbounds nuw %struct.jpeg_decompress_struct, ptr %35, i32 0, i32 0
  %37 = load ptr, ptr %36, align 8, !tbaa !36
  %38 = getelementptr inbounds nuw %struct.jpeg_error_mgr, ptr %37, i32 0, i32 0
  %39 = load ptr, ptr %38, align 8, !tbaa !41
  %40 = load ptr, ptr %3, align 8, !tbaa !3
  call void %39(ptr noundef %40)
  br label %41

41:                                               ; preds = %22, %17
  br label %67

42:                                               ; preds = %2
  %43 = load ptr, ptr %3, align 8, !tbaa !3
  %44 = getelementptr inbounds nuw %struct.jpeg_decompress_struct, ptr %43, i32 0, i32 43
  %45 = load i32, ptr %44, align 8, !tbaa !35
  %46 = icmp ne i32 %45, 8
  br i1 %46, label %47, label %66

47:                                               ; preds = %42
  %48 = load ptr, ptr %3, align 8, !tbaa !3
  %49 = getelementptr inbounds nuw %struct.jpeg_decompress_struct, ptr %48, i32 0, i32 0
  %50 = load ptr, ptr %49, align 8, !tbaa !36
  %51 = getelementptr inbounds nuw %struct.jpeg_error_mgr, ptr %50, i32 0, i32 5
  store i32 15, ptr %51, align 8, !tbaa !37
  %52 = load ptr, ptr %3, align 8, !tbaa !3
  %53 = getelementptr inbounds nuw %struct.jpeg_decompress_struct, ptr %52, i32 0, i32 43
  %54 = load i32, ptr %53, align 8, !tbaa !35
  %55 = load ptr, ptr %3, align 8, !tbaa !3
  %56 = getelementptr inbounds nuw %struct.jpeg_decompress_struct, ptr %55, i32 0, i32 0
  %57 = load ptr, ptr %56, align 8, !tbaa !36
  %58 = getelementptr inbounds nuw %struct.jpeg_error_mgr, ptr %57, i32 0, i32 6
  %59 = getelementptr inbounds [8 x i32], ptr %58, i64 0, i64 0
  store i32 %54, ptr %59, align 4, !tbaa !40
  %60 = load ptr, ptr %3, align 8, !tbaa !3
  %61 = getelementptr inbounds nuw %struct.jpeg_decompress_struct, ptr %60, i32 0, i32 0
  %62 = load ptr, ptr %61, align 8, !tbaa !36
  %63 = getelementptr inbounds nuw %struct.jpeg_error_mgr, ptr %62, i32 0, i32 0
  %64 = load ptr, ptr %63, align 8, !tbaa !41
  %65 = load ptr, ptr %3, align 8, !tbaa !3
  call void %64(ptr noundef %65)
  br label %66

66:                                               ; preds = %47, %42
  br label %67

67:                                               ; preds = %66, %41
  %68 = load ptr, ptr %3, align 8, !tbaa !3
  %69 = getelementptr inbounds nuw %struct.jpeg_decompress_struct, ptr %68, i32 0, i32 1
  %70 = load ptr, ptr %69, align 8, !tbaa !42
  %71 = getelementptr inbounds nuw %struct.jpeg_memory_mgr, ptr %70, i32 0, i32 0
  %72 = load ptr, ptr %71, align 8, !tbaa !43
  %73 = load ptr, ptr %3, align 8, !tbaa !3
  %74 = call ptr %72(ptr noundef %73, i32 noundef 1, i64 noundef 64)
  store ptr %74, ptr %5, align 8, !tbaa !45
  %75 = load ptr, ptr %5, align 8, !tbaa !45
  %76 = load ptr, ptr %3, align 8, !tbaa !3
  %77 = getelementptr inbounds nuw %struct.jpeg_decompress_struct, ptr %76, i32 0, i32 80
  store ptr %75, ptr %77, align 8, !tbaa !46
  %78 = load ptr, ptr %5, align 8, !tbaa !45
  %79 = getelementptr inbounds nuw %struct.my_post_controller, ptr %78, i32 0, i32 0
  %80 = getelementptr inbounds nuw %struct.jpeg_d_post_controller, ptr %79, i32 0, i32 0
  store ptr @start_pass_dpost, ptr %80, align 8, !tbaa !47
  %81 = load ptr, ptr %5, align 8, !tbaa !45
  %82 = getelementptr inbounds nuw %struct.my_post_controller, ptr %81, i32 0, i32 1
  store ptr null, ptr %82, align 8, !tbaa !51
  %83 = load ptr, ptr %5, align 8, !tbaa !45
  %84 = getelementptr inbounds nuw %struct.my_post_controller, ptr %83, i32 0, i32 2
  store ptr null, ptr %84, align 8, !tbaa !52
  %85 = load ptr, ptr %3, align 8, !tbaa !3
  %86 = getelementptr inbounds nuw %struct.jpeg_decompress_struct, ptr %85, i32 0, i32 20
  %87 = load i32, ptr %86, align 4, !tbaa !53
  %88 = icmp ne i32 %87, 0
  br i1 %88, label %89, label %148

89:                                               ; preds = %67
  %90 = load ptr, ptr %3, align 8, !tbaa !3
  %91 = getelementptr inbounds nuw %struct.jpeg_decompress_struct, ptr %90, i32 0, i32 62
  %92 = load i32, ptr %91, align 4, !tbaa !54
  %93 = load ptr, ptr %5, align 8, !tbaa !45
  %94 = getelementptr inbounds nuw %struct.my_post_controller, ptr %93, i32 0, i32 3
  store i32 %92, ptr %94, align 8, !tbaa !55
  %95 = load i32, ptr %4, align 4, !tbaa !8
  %96 = icmp ne i32 %95, 0
  br i1 %96, label %97, label %127

97:                                               ; preds = %89
  %98 = load ptr, ptr %3, align 8, !tbaa !3
  %99 = getelementptr inbounds nuw %struct.jpeg_decompress_struct, ptr %98, i32 0, i32 1
  %100 = load ptr, ptr %99, align 8, !tbaa !42
  %101 = getelementptr inbounds nuw %struct.jpeg_memory_mgr, ptr %100, i32 0, i32 4
  %102 = load ptr, ptr %101, align 8, !tbaa !56
  %103 = load ptr, ptr %3, align 8, !tbaa !3
  %104 = load ptr, ptr %3, align 8, !tbaa !3
  %105 = getelementptr inbounds nuw %struct.jpeg_decompress_struct, ptr %104, i32 0, i32 27
  %106 = load i32, ptr %105, align 8, !tbaa !57
  %107 = load ptr, ptr %3, align 8, !tbaa !3
  %108 = getelementptr inbounds nuw %struct.jpeg_decompress_struct, ptr %107, i32 0, i32 29
  %109 = load i32, ptr %108, align 8, !tbaa !58
  %110 = mul i32 %106, %109
  %111 = load ptr, ptr %3, align 8, !tbaa !3
  %112 = getelementptr inbounds nuw %struct.jpeg_decompress_struct, ptr %111, i32 0, i32 28
  %113 = load i32, ptr %112, align 4, !tbaa !59
  %114 = zext i32 %113 to i64
  %115 = load ptr, ptr %5, align 8, !tbaa !45
  %116 = getelementptr inbounds nuw %struct.my_post_controller, ptr %115, i32 0, i32 3
  %117 = load i32, ptr %116, align 8, !tbaa !55
  %118 = zext i32 %117 to i64
  %119 = call i64 @jround_up(i64 noundef %114, i64 noundef %118)
  %120 = trunc i64 %119 to i32
  %121 = load ptr, ptr %5, align 8, !tbaa !45
  %122 = getelementptr inbounds nuw %struct.my_post_controller, ptr %121, i32 0, i32 3
  %123 = load i32, ptr %122, align 8, !tbaa !55
  %124 = call ptr %102(ptr noundef %103, i32 noundef 1, i32 noundef 0, i32 noundef %110, i32 noundef %120, i32 noundef %123)
  %125 = load ptr, ptr %5, align 8, !tbaa !45
  %126 = getelementptr inbounds nuw %struct.my_post_controller, ptr %125, i32 0, i32 1
  store ptr %124, ptr %126, align 8, !tbaa !51
  br label %147

127:                                              ; preds = %89
  %128 = load ptr, ptr %3, align 8, !tbaa !3
  %129 = getelementptr inbounds nuw %struct.jpeg_decompress_struct, ptr %128, i32 0, i32 1
  %130 = load ptr, ptr %129, align 8, !tbaa !42
  %131 = getelementptr inbounds nuw %struct.jpeg_memory_mgr, ptr %130, i32 0, i32 2
  %132 = load ptr, ptr %131, align 8, !tbaa !60
  %133 = load ptr, ptr %3, align 8, !tbaa !3
  %134 = load ptr, ptr %3, align 8, !tbaa !3
  %135 = getelementptr inbounds nuw %struct.jpeg_decompress_struct, ptr %134, i32 0, i32 27
  %136 = load i32, ptr %135, align 8, !tbaa !57
  %137 = load ptr, ptr %3, align 8, !tbaa !3
  %138 = getelementptr inbounds nuw %struct.jpeg_decompress_struct, ptr %137, i32 0, i32 29
  %139 = load i32, ptr %138, align 8, !tbaa !58
  %140 = mul i32 %136, %139
  %141 = load ptr, ptr %5, align 8, !tbaa !45
  %142 = getelementptr inbounds nuw %struct.my_post_controller, ptr %141, i32 0, i32 3
  %143 = load i32, ptr %142, align 8, !tbaa !55
  %144 = call ptr %132(ptr noundef %133, i32 noundef 1, i32 noundef %140, i32 noundef %143)
  %145 = load ptr, ptr %5, align 8, !tbaa !45
  %146 = getelementptr inbounds nuw %struct.my_post_controller, ptr %145, i32 0, i32 2
  store ptr %144, ptr %146, align 8, !tbaa !52
  br label %147

147:                                              ; preds = %127, %97
  br label %148

148:                                              ; preds = %147, %67
  call void @llvm.lifetime.end.p0(i64 8, ptr %5) #3
  ret void
}