; Function Attrs: nounwind uwtable
define void @jinit_d_post_controller(ptr noundef %0, i32 noundef %1) local_unnamed_addr #0 {
  %3 = getelementptr inbounds nuw i8, ptr %0, i64 544
  %4 = load ptr, ptr %3, align 8, !tbaa !3
  %5 = getelementptr inbounds nuw i8, ptr %4, i64 20
  %6 = load i32, ptr %5, align 4, !tbaa !30
  %.not = icmp eq i32 %6, 0
  %7 = getelementptr inbounds nuw i8, ptr %0, i64 296
  %8 = load i32, ptr %7, align 8, !tbaa !32
  br i1 %.not, label %11, label %9

9:                                                ; preds = %2
  %10 = add i32 %8, -9
  %or.cond = icmp ult i32 %10, -7
  br i1 %or.cond, label %.sink.split, label %17

11:                                               ; preds = %2
  %.not38 = icmp eq i32 %8, 8
  br i1 %.not38, label %17, label %.sink.split

.sink.split:                                      ; preds = %11, %9
  %12 = load ptr, ptr %0, align 8, !tbaa !33
  %13 = getelementptr inbounds nuw i8, ptr %12, i64 40
  store i32 15, ptr %13, align 8, !tbaa !34
  %14 = getelementptr inbounds nuw i8, ptr %12, i64 44
  store i32 %8, ptr %14, align 4, !tbaa !37
  %15 = load ptr, ptr %0, align 8, !tbaa !33
  %16 = load ptr, ptr %15, align 8, !tbaa !38
  tail call void %16(ptr noundef nonnull %0) #5
  br label %17

17:                                               ; preds = %.sink.split, %9, %11
  %18 = getelementptr inbounds nuw i8, ptr %0, i64 8
  %19 = load ptr, ptr %18, align 8, !tbaa !39
  %20 = load ptr, ptr %19, align 8, !tbaa !40
  %21 = tail call ptr %20(ptr noundef nonnull %0, i32 noundef 1, i64 noundef 64) #5
  %22 = getelementptr inbounds nuw i8, ptr %0, i64 568
  store ptr %21, ptr %22, align 8, !tbaa !42
  store ptr @start_pass_dpost, ptr %21, align 8, !tbaa !43
  %23 = getelementptr inbounds nuw i8, ptr %21, i64 32
  %24 = getelementptr inbounds nuw i8, ptr %21, i64 40
  %25 = getelementptr inbounds nuw i8, ptr %0, i64 108
  tail call void @llvm.memset.p0.i64(ptr noundef nonnull align 8 dereferenceable(16) %23, i8 0, i64 16, i1 false)
  %26 = load i32, ptr %25, align 4, !tbaa !47
  %.not39 = icmp eq i32 %26, 0
  br i1 %.not39, label %52, label %27

27:                                               ; preds = %17
  %28 = getelementptr inbounds nuw i8, ptr %0, i64 412
  %29 = load i32, ptr %28, align 4, !tbaa !48
  %30 = getelementptr inbounds nuw i8, ptr %21, i64 48
  store i32 %29, ptr %30, align 8, !tbaa !49
  %.not40 = icmp eq i32 %1, 0
  %31 = load ptr, ptr %18, align 8, !tbaa !39
  %32 = getelementptr inbounds nuw i8, ptr %0, i64 136
  %33 = load i32, ptr %32, align 8, !tbaa !50
  %34 = getelementptr inbounds nuw i8, ptr %0, i64 144
  %35 = load i32, ptr %34, align 8, !tbaa !51
  %36 = mul i32 %35, %33
  br i1 %.not40, label %48, label %37

37:                                               ; preds = %27
  %38 = getelementptr inbounds nuw i8, ptr %31, i64 32
  %39 = load ptr, ptr %38, align 8, !tbaa !52
  %40 = getelementptr inbounds nuw i8, ptr %0, i64 140
  %41 = load i32, ptr %40, align 4, !tbaa !53
  %42 = zext i32 %41 to i64
  %43 = zext i32 %29 to i64
  %44 = tail call i64 @jround_up(i64 noundef %42, i64 noundef %43) #5
  %45 = trunc i64 %44 to i32
  %46 = load i32, ptr %30, align 8, !tbaa !49
  %47 = tail call ptr %39(ptr noundef nonnull %0, i32 noundef 1, i32 noundef 0, i32 noundef %36, i32 noundef %45, i32 noundef %46) #5
  store ptr %47, ptr %23, align 8, !tbaa !54
  br label %52

48:                                               ; preds = %27
  %49 = getelementptr inbounds nuw i8, ptr %31, i64 16
  %50 = load ptr, ptr %49, align 8, !tbaa !55
  %51 = tail call ptr %50(ptr noundef nonnull %0, i32 noundef 1, i32 noundef %36, i32 noundef %29) #5
  store ptr %51, ptr %24, align 8, !tbaa !56
  br label %52

52:                                               ; preds = %37, %48, %17
  ret void
}